target datalayout = "e-m:e-p270:32:32-p271:32:32-p272:64:64-i64:64-i128:128-f80:128-n8:16:32:64-S128"
target triple = "x86_64-pc-linux-gnu"

%struct.archive_read = type { %struct.archive, ptr, i32, i64, i64, %struct.archive_read_client, [16 x %struct.archive_read_filter_bidder], ptr, i32, i64, i32, i32, [16 x %struct.archive_format_descriptor], ptr, ptr, ptr, %struct.anon }
%struct.archive = type { i32, i32, ptr, i32, ptr, i32, i32, ptr, %struct.archive_string, ptr, i32, i32, ptr, ptr, i64, i64, i64, i8, i64 }
%struct.archive_string = type { ptr, i64, i64 }
%struct.archive_read_client = type { ptr, ptr, ptr, ptr, ptr, ptr, i32, i32, i64, ptr }
%struct.archive_read_filter_bidder = type { ptr, ptr, ptr }
%struct.archive_format_descriptor = type { ptr, ptr, ptr, ptr, ptr, ptr, ptr, ptr, ptr, ptr, ptr }
%struct.anon = type { ptr, ptr, i32, ptr, ptr }
%struct.cpio = type { i32, ptr, ptr, i64, i64, i64, i64, ptr, ptr, i32, i32 }

@.str = private unnamed_addr constant [33 x i8] c"archive_read_support_format_cpio\00", align 1
@.str.1 = private unnamed_addr constant [25 x i8] c"Can't allocate cpio data\00", align 1
@.str.2 = private unnamed_addr constant [5 x i8] c"cpio\00", align 1

; Function Attrs: nounwind uwtable
define dso_local i32 @archive_read_support_format_cpio(ptr noundef %0) #0 {
  %2 = alloca i32, align 4
  %3 = alloca ptr, align 8
  %4 = alloca ptr, align 8
  %5 = alloca ptr, align 8
  %6 = alloca i32, align 4
  %7 = alloca i32, align 4
  %8 = alloca i32, align 4
  store ptr %0, ptr %3, align 8, !tbaa !4
  call void @llvm.lifetime.start.p0(i64 8, ptr %4) #8
  %9 = load ptr, ptr %3, align 8, !tbaa !4
  store ptr %9, ptr %4, align 8, !tbaa !9
  call void @llvm.lifetime.start.p0(i64 8, ptr %5) #8
  call void @llvm.lifetime.start.p0(i64 4, ptr %6) #8
  br label %10

10:                                               ; preds = %1
  call void @llvm.lifetime.start.p0(i64 4, ptr %7) #8
  %11 = load ptr, ptr %3, align 8, !tbaa !4
  %12 = call i32 @__archive_check_magic(ptr noundef %11, i32 noundef 14594245, i32 noundef 1, ptr noundef @.str)
  store i32 %12, ptr %7, align 4, !tbaa !11
  %13 = load i32, ptr %7, align 4, !tbaa !11
  %14 = icmp eq i32 %13, -30
  br i1 %14, label %15, label %16

15:                                               ; preds = %10
  store i32 -30, ptr %2, align 4
  store i32 1, ptr %8, align 4
  br label %17

16:                                               ; preds = %10
  store i32 0, ptr %8, align 4
  br label %17

17:                                               ; preds = %16, %15
  call void @llvm.lifetime.end.p0(i64 4, ptr %7) #8
  %18 = load i32, ptr %8, align 4
  switch i32 %18, label %39 [
    i32 0, label %19
  ]

19:                                               ; preds = %17
  br label %20

20:                                               ; preds = %19
  br label %21

21:                                               ; preds = %20
  %22 = call noalias ptr @calloc(i64 noundef 1, i64 noundef 80) #9
  store ptr %22, ptr %5, align 8, !tbaa !13
  %23 = load ptr, ptr %5, align 8, !tbaa !13
  %24 = icmp eq ptr %23, null
  br i1 %24, label %25, label %28

25:                                               ; preds = %21
  %26 = load ptr, ptr %4, align 8, !tbaa !9
  %27 = getelementptr inbounds nuw %struct.archive_read, ptr %26, i32 0, i32 0
  call void (ptr, i32, ptr, ...) @archive_set_error(ptr noundef %27, i32 noundef 12, ptr noundef @.str.1)
  store i32 -30, ptr %2, align 4
  store i32 1, ptr %8, align 4
  br label %39

28:                                               ; preds = %21
  %29 = load ptr, ptr %5, align 8, !tbaa !13
  %30 = getelementptr inbounds nuw %struct.cpio, ptr %29, i32 0, i32 0
  store i32 320083222, ptr %30, align 8, !tbaa !15
  %31 = load ptr, ptr %4, align 8, !tbaa !9
  %32 = load ptr, ptr %5, align 8, !tbaa !13
  %33 = call i32 @__archive_read_register_format(ptr noundef %31, ptr noundef %32, ptr noundef @.str.2, ptr noundef @archive_read_format_cpio_bid, ptr noundef @archive_read_format_cpio_options, ptr noundef @archive_read_format_cpio_read_header, ptr noundef @archive_read_format_cpio_read_data, ptr noundef @archive_read_format_cpio_skip, ptr noundef null, ptr noundef @archive_read_format_cpio_cleanup, ptr noundef null, ptr noundef null)
  store i32 %33, ptr %6, align 4, !tbaa !11
  %34 = load i32, ptr %6, align 4, !tbaa !11
  %35 = icmp ne i32 %34, 0
  br i1 %35, label %36, label %38

36:                                               ; preds = %28
  %37 = load ptr, ptr %5, align 8, !tbaa !13
  call void @free(ptr noundef %37) #8
  br label %38

38:                                               ; preds = %36, %28
  store i32 0, ptr %2, align 4
  store i32 1, ptr %8, align 4
  br label %39

39:                                               ; preds = %38, %25, %17
  call void @llvm.lifetime.end.p0(i64 4, ptr %6) #8
  call void @llvm.lifetime.end.p0(i64 8, ptr %5) #8
  call void @llvm.lifetime.end.p0(i64 8, ptr %4) #8
  %40 = load i32, ptr %2, align 4
  ret i32 %40
}